; Function Attrs: nounwind sspstrong uwtable
define internal void @loop_init_int32(ptr noundef captures(none) initializes((8, 12)) %0, i32 noundef %1) #0 {
  %3 = getelementptr inbounds nuw i8, ptr %0, i64 16
  %4 = load ptr, ptr %3, align 8, !tbaa !15
  %5 = tail call nonnull dereferenceable(4) ptr @ruby_xrealloc2(ptr noundef %4, i64 noundef 1, i64 noundef 4) #11
  store ptr %5, ptr %3, align 8, !tbaa !15
  %6 = getelementptr inbounds nuw i8, ptr %0, i64 8
  store i32 1, ptr %6, align 8, !tbaa !20
  store i32 %1, ptr %5, align 1
  ret void
}